target datalayout = "e-m:e-p270:32:32-p271:32:32-p272:64:64-i64:64-i128:128-f80:128-n8:16:32:64-S128"
target triple = "x86_64-pc-linux-gnu"

%"class.o3dgc::Arithmetic_Codec" = type <{ ptr, ptr, ptr, i32, i32, i32, i32, i32, [4 x i8] }>
%"class.o3dgc::Adaptive_Data_Model" = type <{ ptr, ptr, ptr, i32, i32, i32, i32, i32, i32, i32, [4 x i8] }>

; Function Attrs: inlinehint mustprogress nounwind uwtable
define linkonce_odr hidden void @_ZN5o3dgc16Arithmetic_Codec19renorm_dec_intervalEv(ptr noundef nonnull align 8 dereferenceable(44) %0) #2 comdat align 2 {
  %2 = alloca ptr, align 8
  store ptr %0, ptr %2, align 8
  %3 = load ptr, ptr %2, align 8
  br label %4

4:                                                ; preds = %15, %1
  %5 = getelementptr inbounds nuw %"class.o3dgc::Arithmetic_Codec", ptr %3, i32 0, i32 4
  %6 = load i32, ptr %5, align 4
  %7 = shl i32 %6, 8
  %8 = getelementptr inbounds nuw %"class.o3dgc::Arithmetic_Codec", ptr %3, i32 0, i32 2
  %9 = load ptr, ptr %8, align 8
  %10 = getelementptr inbounds nuw i8, ptr %9, i32 1
  store ptr %10, ptr %8, align 8
  %11 = load i8, ptr %10, align 1
  %12 = zext i8 %11 to i32
  %13 = or i32 %7, %12
  %14 = getelementptr inbounds nuw %"class.o3dgc::Arithmetic_Codec", ptr %3, i32 0, i32 4
  store i32 %13, ptr %14, align 4
  br label %15

15:                                               ; preds = %4
  %16 = getelementptr inbounds nuw %"class.o3dgc::Arithmetic_Codec", ptr %3, i32 0, i32 5
  %17 = load i32, ptr %16, align 8
  %18 = shl i32 %17, 8
  store i32 %18, ptr %16, align 8
  %19 = icmp ult i32 %18, 16777216
  br i1 %19, label %4, label %20, !llvm.loop !6

20:                                               ; preds = %15
  ret void
}

; Function Attrs: mustprogress uwtable
define hidden noundef i32 @_ZN5o3dgc16Arithmetic_Codec6decodeERNS_19Adaptive_Data_ModelE(ptr noundef nonnull align 8 dereferenceable(44) %0, ptr noundef nonnull align 8 dereferenceable(52) %1) #0 align 2 {
  %3 = alloca ptr, align 8
  %4 = alloca ptr, align 8
  %5 = alloca i32, align 4
  %6 = alloca i32, align 4
  %7 = alloca i32, align 4
  %8 = alloca i32, align 4
  %9 = alloca i32, align 4
  %10 = alloca i32, align 4
  %11 = alloca i32, align 4
  %12 = alloca i32, align 4
  %13 = alloca i32, align 4
  store ptr %0, ptr %3, align 8
  store ptr %1, ptr %4, align 8
  %14 = load ptr, ptr %3, align 8
  call void @llvm.lifetime.start.p0(i64 4, ptr %5) #12
  call void @llvm.lifetime.start.p0(i64 4, ptr %6) #12
  call void @llvm.lifetime.start.p0(i64 4, ptr %7) #12
  call void @llvm.lifetime.start.p0(i64 4, ptr %8) #12
  %15 = getelementptr inbounds nuw %"class.o3dgc::Arithmetic_Codec", ptr %14, i32 0, i32 5
  %16 = load i32, ptr %15, align 8
  store i32 %16, ptr %8, align 4
  %17 = load ptr, ptr %4, align 8
  %18 = getelementptr inbounds nuw %"class.o3dgc::Adaptive_Data_Model", ptr %17, i32 0, i32 2
  %19 = load ptr, ptr %18, align 8
  %20 = icmp ne ptr %19, null
  br i1 %20, label %21, label %102

21:                                               ; preds = %2
  call void @llvm.lifetime.start.p0(i64 4, ptr %9) #12
  %22 = getelementptr inbounds nuw %"class.o3dgc::Arithmetic_Codec", ptr %14, i32 0, i32 4
  %23 = load i32, ptr %22, align 4
  %24 = getelementptr inbounds nuw %"class.o3dgc::Arithmetic_Codec", ptr %14, i32 0, i32 5
  %25 = load i32, ptr %24, align 8
  %26 = lshr i32 %25, 15
  store i32 %26, ptr %24, align 8
  %27 = udiv i32 %23, %26
  store i32 %27, ptr %9, align 4
  call void @llvm.lifetime.start.p0(i64 4, ptr %10) #12
  %28 = load i32, ptr %9, align 4
  %29 = load ptr, ptr %4, align 8
  %30 = getelementptr inbounds nuw %"class.o3dgc::Adaptive_Data_Model", ptr %29, i32 0, i32 9
  %31 = load i32, ptr %30, align 8
  %32 = lshr i32 %28, %31
  store i32 %32, ptr %10, align 4
  %33 = load ptr, ptr %4, align 8
  %34 = getelementptr inbounds nuw %"class.o3dgc::Adaptive_Data_Model", ptr %33, i32 0, i32 2
  %35 = load ptr, ptr %34, align 8
  %36 = load i32, ptr %10, align 4
  %37 = zext i32 %36 to i64
  %38 = getelementptr inbounds nuw i32, ptr %35, i64 %37
  %39 = load i32, ptr %38, align 4
  store i32 %39, ptr %6, align 4
  %40 = load ptr, ptr %4, align 8
  %41 = getelementptr inbounds nuw %"class.o3dgc::Adaptive_Data_Model", ptr %40, i32 0, i32 2
  %42 = load ptr, ptr %41, align 8
  %43 = load i32, ptr %10, align 4
  %44 = add i32 %43, 1
  %45 = zext i32 %44 to i64
  %46 = getelementptr inbounds nuw i32, ptr %42, i64 %45
  %47 = load i32, ptr %46, align 4
  %48 = add i32 %47, 1
  store i32 %48, ptr %5, align 4
  br label %49

49:                                               ; preds = %72, %21
  %50 = load i32, ptr %5, align 4
  %51 = load i32, ptr %6, align 4
  %52 = add i32 %51, 1
  %53 = icmp ugt i32 %50, %52
  br i1 %53, label %54, label %73

54:                                               ; preds = %49
  call void @llvm.lifetime.start.p0(i64 4, ptr %11) #12
  %55 = load i32, ptr %6, align 4
  %56 = load i32, ptr %5, align 4
  %57 = add i32 %55, %56
  %58 = lshr i32 %57, 1
  store i32 %58, ptr %11, align 4
  %59 = load ptr, ptr %4, align 8
  %60 = getelementptr inbounds nuw %"class.o3dgc::Adaptive_Data_Model", ptr %59, i32 0, i32 0
  %61 = load ptr, ptr %60, align 8
  %62 = load i32, ptr %11, align 4
  %63 = zext i32 %62 to i64
  %64 = getelementptr inbounds nuw i32, ptr %61, i64 %63
  %65 = load i32, ptr %64, align 4
  %66 = load i32, ptr %9, align 4
  %67 = icmp ugt i32 %65, %66
  br i1 %67, label %68, label %70

68:                                               ; preds = %54
  %69 = load i32, ptr %11, align 4
  store i32 %69, ptr %5, align 4
  br label %72

70:                                               ; preds = %54
  %71 = load i32, ptr %11, align 4
  store i32 %71, ptr %6, align 4
  br label %72

72:                                               ; preds = %70, %68
  call void @llvm.lifetime.end.p0(i64 4, ptr %11) #12
  br label %49, !llvm.loop !16

73:                                               ; preds = %49
  %74 = load ptr, ptr %4, align 8
  %75 = getelementptr inbounds nuw %"class.o3dgc::Adaptive_Data_Model", ptr %74, i32 0, i32 0
  %76 = load ptr, ptr %75, align 8
  %77 = load i32, ptr %6, align 4
  %78 = zext i32 %77 to i64
  %79 = getelementptr inbounds nuw i32, ptr %76, i64 %78
  %80 = load i32, ptr %79, align 4
  %81 = getelementptr inbounds nuw %"class.o3dgc::Arithmetic_Codec", ptr %14, i32 0, i32 5
  %82 = load i32, ptr %81, align 8
  %83 = mul i32 %80, %82
  store i32 %83, ptr %7, align 4
  %84 = load i32, ptr %6, align 4
  %85 = load ptr, ptr %4, align 8
  %86 = getelementptr inbounds nuw %"class.o3dgc::Adaptive_Data_Model", ptr %85, i32 0, i32 7
  %87 = load i32, ptr %86, align 8
  %88 = icmp ne i32 %84, %87
  br i1 %88, label %89, label %101

89:                                               ; preds = %73
  %90 = load ptr, ptr %4, align 8
  %91 = getelementptr inbounds nuw %"class.o3dgc::Adaptive_Data_Model", ptr %90, i32 0, i32 0
  %92 = load ptr, ptr %91, align 8
  %93 = load i32, ptr %6, align 4
  %94 = add i32 %93, 1
  %95 = zext i32 %94 to i64
  %96 = getelementptr inbounds nuw i32, ptr %92, i64 %95
  %97 = load i32, ptr %96, align 4
  %98 = getelementptr inbounds nuw %"class.o3dgc::Arithmetic_Codec", ptr %14, i32 0, i32 5
  %99 = load i32, ptr %98, align 8
  %100 = mul i32 %97, %99
  store i32 %100, ptr %8, align 4
  br label %101

101:                                              ; preds = %89, %73
  call void @llvm.lifetime.end.p0(i64 4, ptr %10) #12
  call void @llvm.lifetime.end.p0(i64 4, ptr %9) #12
  br label %140

102:                                              ; preds = %2
  store i32 0, ptr %6, align 4
  store i32 0, ptr %7, align 4
  %103 = getelementptr inbounds nuw %"class.o3dgc::Arithmetic_Codec", ptr %14, i32 0, i32 5
  %104 = load i32, ptr %103, align 8
  %105 = lshr i32 %104, 15
  store i32 %105, ptr %103, align 8
  call void @llvm.lifetime.start.p0(i64 4, ptr %12) #12
  %106 = load ptr, ptr %4, align 8
  %107 = getelementptr inbounds nuw %"class.o3dgc::Adaptive_Data_Model", ptr %106, i32 0, i32 6
  %108 = load i32, ptr %107, align 4
  store i32 %108, ptr %5, align 4
  %109 = lshr i32 %108, 1
  store i32 %109, ptr %12, align 4
  br label %110

110:                                              ; preds = %132, %102
  call void @llvm.lifetime.start.p0(i64 4, ptr %13) #12
  %111 = getelementptr inbounds nuw %"class.o3dgc::Arithmetic_Codec", ptr %14, i32 0, i32 5
  %112 = load i32, ptr %111, align 8
  %113 = load ptr, ptr %4, align 8
  %114 = getelementptr inbounds nuw %"class.o3dgc::Adaptive_Data_Model", ptr %113, i32 0, i32 0
  %115 = load ptr, ptr %114, align 8
  %116 = load i32, ptr %12, align 4
  %117 = zext i32 %116 to i64
  %118 = getelementptr inbounds nuw i32, ptr %115, i64 %117
  %119 = load i32, ptr %118, align 4
  %120 = mul i32 %112, %119
  store i32 %120, ptr %13, align 4
  %121 = load i32, ptr %13, align 4
  %122 = getelementptr inbounds nuw %"class.o3dgc::Arithmetic_Codec", ptr %14, i32 0, i32 4
  %123 = load i32, ptr %122, align 4
  %124 = icmp ugt i32 %121, %123
  br i1 %124, label %125, label %128

125:                                              ; preds = %110
  %126 = load i32, ptr %12, align 4
  store i32 %126, ptr %5, align 4
  %127 = load i32, ptr %13, align 4
  store i32 %127, ptr %8, align 4
  br label %131

128:                                              ; preds = %110
  %129 = load i32, ptr %12, align 4
  store i32 %129, ptr %6, align 4
  %130 = load i32, ptr %13, align 4
  store i32 %130, ptr %7, align 4
  br label %131

131:                                              ; preds = %128, %125
  call void @llvm.lifetime.end.p0(i64 4, ptr %13) #12
  br label %132

132:                                              ; preds = %131
  %133 = load i32, ptr %6, align 4
  %134 = load i32, ptr %5, align 4
  %135 = add i32 %133, %134
  %136 = lshr i32 %135, 1
  store i32 %136, ptr %12, align 4
  %137 = load i32, ptr %6, align 4
  %138 = icmp ne i32 %136, %137
  br i1 %138, label %110, label %139, !llvm.loop !17

139:                                              ; preds = %132
  call void @llvm.lifetime.end.p0(i64 4, ptr %12) #12
  br label %140

140:                                              ; preds = %139, %101
  %141 = load i32, ptr %7, align 4
  %142 = getelementptr inbounds nuw %"class.o3dgc::Arithmetic_Codec", ptr %14, i32 0, i32 4
  %143 = load i32, ptr %142, align 4
  %144 = sub i32 %143, %141
  store i32 %144, ptr %142, align 4
  %145 = load i32, ptr %8, align 4
  %146 = load i32, ptr %7, align 4
  %147 = sub i32 %145, %146
  %148 = getelementptr inbounds nuw %"class.o3dgc::Arithmetic_Codec", ptr %14, i32 0, i32 5
  store i32 %147, ptr %148, align 8
  %149 = getelementptr inbounds nuw %"class.o3dgc::Arithmetic_Codec", ptr %14, i32 0, i32 5
  %150 = load i32, ptr %149, align 8
  %151 = icmp ult i32 %150, 16777216
  br i1 %151, label %152, label %153

152:                                              ; preds = %140
  call void @_ZN5o3dgc16Arithmetic_Codec19renorm_dec_intervalEv(ptr noundef nonnull align 8 dereferenceable(44) %14)
  br label %153

153:                                              ; preds = %152, %140
  %154 = load ptr, ptr %4, align 8
  %155 = getelementptr inbounds nuw %"class.o3dgc::Adaptive_Data_Model", ptr %154, i32 0, i32 1
  %156 = load ptr, ptr %155, align 8
  %157 = load i32, ptr %6, align 4
  %158 = zext i32 %157 to i64
  %159 = getelementptr inbounds nuw i32, ptr %156, i64 %158
  %160 = load i32, ptr %159, align 4
  %161 = add i32 %160, 1
  store i32 %161, ptr %159, align 4
  %162 = load ptr, ptr %4, align 8
  %163 = getelementptr inbounds nuw %"class.o3dgc::Adaptive_Data_Model", ptr %162, i32 0, i32 5
  %164 = load i32, ptr %163, align 8
  %165 = add i32 %164, -1
  store i32 %165, ptr %163, align 8
  %166 = icmp eq i32 %165, 0
  br i1 %166, label %167, label %169

167:                                              ; preds = %153
  %168 = load ptr, ptr %4, align 8
  call void @_ZN5o3dgc19Adaptive_Data_Model6updateEb(ptr noundef nonnull align 8 dereferenceable(52) %168, i1 noundef zeroext false)
  br label %169

169:                                              ; preds = %167, %153
  %170 = load i32, ptr %6, align 4
  call void @llvm.lifetime.end.p0(i64 4, ptr %8) #12
  call void @llvm.lifetime.end.p0(i64 4, ptr %7) #12
  call void @llvm.lifetime.end.p0(i64 4, ptr %6) #12
  call void @llvm.lifetime.end.p0(i64 4, ptr %5) #12
  ret i32 %170
}