; Function Attrs: mustprogress nofree norecurse nosync nounwind memory(readwrite, inaccessiblemem: write) uwtable
define hidden noundef i32 @_ZN5o3dgc16Arithmetic_Codec6decodeERNS_19Adaptive_Data_ModelE(ptr noundef nonnull align 8 captures(none) dereferenceable(44) %0, ptr noundef nonnull align 8 captures(none) dereferenceable(52) %1) local_unnamed_addr #3 align 2 {
  %3 = getelementptr inbounds nuw i8, ptr %0, i64 32
  %4 = load i32, ptr %3, align 8
  %5 = getelementptr inbounds nuw i8, ptr %1, i64 16
  %6 = load ptr, ptr %5, align 8
  %.not = icmp eq ptr %6, null
  br i1 %.not, label %45, label %7

7:                                                ; preds = %2
  %8 = getelementptr inbounds nuw i8, ptr %0, i64 28
  %9 = load i32, ptr %8, align 4
  %10 = lshr i32 %4, 15
  store i32 %10, ptr %3, align 8
  %11 = udiv i32 %9, %10
  %12 = getelementptr inbounds nuw i8, ptr %1, i64 48
  %13 = load i32, ptr %12, align 8
  %14 = lshr i32 %11, %13
  %15 = load ptr, ptr %5, align 8
  %16 = zext i32 %14 to i64
  %17 = getelementptr inbounds nuw i32, ptr %15, i64 %16
  %18 = load i32, ptr %17, align 4
  %19 = add i32 %14, 1
  %20 = zext i32 %19 to i64
  %21 = getelementptr inbounds nuw i32, ptr %15, i64 %20
  %22 = load i32, ptr %21, align 4
  %23 = add i32 %22, 1
  %24 = add i32 %18, 1
  %25 = icmp ugt i32 %23, %24
  %.pre = load ptr, ptr %1, align 8
  br i1 %25, label %.lr.ph, label %._crit_edge

.lr.ph:                                           ; preds = %7, %.lr.ph
  %.060 = phi i32 [ %..0, %.lr.ph ], [ %23, %7 ]
  %.04259 = phi i32 [ %.042., %.lr.ph ], [ %18, %7 ]
  %26 = add i32 %.060, %.04259
  %27 = lshr i32 %26, 1
  %28 = zext nneg i32 %27 to i64
  %29 = getelementptr inbounds nuw i32, ptr %.pre, i64 %28
  %30 = load i32, ptr %29, align 4
  %31 = icmp ugt i32 %30, %11
  %.042. = select i1 %31, i32 %.04259, i32 %27
  %..0 = select i1 %31, i32 %27, i32 %.060
  %32 = add i32 %.042., 1
  %33 = icmp ugt i32 %..0, %32
  br i1 %33, label %.lr.ph, label %._crit_edge, !llvm.loop !14

._crit_edge:                                      ; preds = %.lr.ph, %7
  %.042.lcssa = phi i32 [ %18, %7 ], [ %.042., %.lr.ph ]
  %.lcssa = phi i32 [ %24, %7 ], [ %32, %.lr.ph ]
  %34 = zext i32 %.042.lcssa to i64
  %35 = getelementptr inbounds nuw i32, ptr %.pre, i64 %34
  %36 = load i32, ptr %35, align 4
  %37 = mul i32 %36, %10
  %38 = getelementptr inbounds nuw i8, ptr %1, i64 40
  %39 = load i32, ptr %38, align 8
  %.not58 = icmp eq i32 %.042.lcssa, %39
  br i1 %.not58, label %.loopexit, label %40

40:                                               ; preds = %._crit_edge
  %41 = zext i32 %.lcssa to i64
  %42 = getelementptr inbounds nuw i32, ptr %.pre, i64 %41
  %43 = load i32, ptr %42, align 4
  %44 = mul i32 %43, %10
  br label %.loopexit

45:                                               ; preds = %2
  %46 = lshr i32 %4, 15
  store i32 %46, ptr %3, align 8
  %47 = getelementptr inbounds nuw i8, ptr %1, i64 36
  %48 = load i32, ptr %47, align 4
  %49 = lshr i32 %48, 1
  %50 = load ptr, ptr %1, align 8
  %51 = getelementptr inbounds nuw i8, ptr %0, i64 28
  %52 = load i32, ptr %51, align 4
  br label %53

53:                                               ; preds = %53, %45
  %.251 = phi i32 [ %4, %45 ], [ %..251, %53 ]
  %.147 = phi i32 [ 0, %45 ], [ %.147., %53 ]
  %.345 = phi i32 [ 0, %45 ], [ %.345..041, %53 ]
  %.041 = phi i32 [ %49, %45 ], [ %60, %53 ]
  %.2 = phi i32 [ %48, %45 ], [ %.041..2, %53 ]
  %54 = zext nneg i32 %.041 to i64
  %55 = getelementptr inbounds nuw i32, ptr %50, i64 %54
  %56 = load i32, ptr %55, align 4
  %57 = mul i32 %56, %46
  %58 = icmp ugt i32 %57, %52
  %..251 = select i1 %58, i32 %57, i32 %.251
  %.147. = select i1 %58, i32 %.147, i32 %57
  %.345..041 = select i1 %58, i32 %.345, i32 %.041
  %.041..2 = select i1 %58, i32 %.041, i32 %.2
  %59 = add i32 %.345..041, %.041..2
  %60 = lshr i32 %59, 1
  %.not57 = icmp eq i32 %60, %.345..041
  br i1 %.not57, label %.loopexit, label %53, !llvm.loop !15

.loopexit:                                        ; preds = %53, %._crit_edge, %40
  %61 = phi i32 [ %9, %40 ], [ %9, %._crit_edge ], [ %52, %53 ]
  %.150 = phi i32 [ %44, %40 ], [ %4, %._crit_edge ], [ %..251, %53 ]
  %.046 = phi i32 [ %37, %40 ], [ %37, %._crit_edge ], [ %.147., %53 ]
  %.244 = phi i32 [ %.042.lcssa, %40 ], [ %.042.lcssa, %._crit_edge ], [ %.345..041, %53 ]
  %62 = getelementptr inbounds nuw i8, ptr %0, i64 28
  %63 = sub i32 %61, %.046
  store i32 %63, ptr %62, align 4
  %64 = sub i32 %.150, %.046
  store i32 %64, ptr %3, align 8
  %65 = icmp ult i32 %64, 16777216
  br i1 %65, label %66, label %_ZN5o3dgc16Arithmetic_Codec19renorm_dec_intervalEv.exit

66:                                               ; preds = %.loopexit
  %67 = getelementptr inbounds nuw i8, ptr %0, i64 16
  %.promoted1.i = load ptr, ptr %67, align 8
  br label %68

68:                                               ; preds = %68, %66
  %69 = phi i32 [ %77, %68 ], [ %64, %66 ]
  %70 = phi ptr [ %73, %68 ], [ %.promoted1.i, %66 ]
  %71 = phi i32 [ %76, %68 ], [ %63, %66 ]
  %72 = shl i32 %71, 8
  %73 = getelementptr inbounds nuw i8, ptr %70, i64 1
  store ptr %73, ptr %67, align 8
  %74 = load i8, ptr %73, align 1
  %75 = zext i8 %74 to i32
  %76 = or disjoint i32 %72, %75
  store i32 %76, ptr %62, align 4
  %77 = shl nuw i32 %69, 8
  store i32 %77, ptr %3, align 8
  %78 = icmp ult i32 %69, 65536
  br i1 %78, label %68, label %_ZN5o3dgc16Arithmetic_Codec19renorm_dec_intervalEv.exit, !llvm.loop !6

_ZN5o3dgc16Arithmetic_Codec19renorm_dec_intervalEv.exit: ; preds = %68, %.loopexit
  %79 = getelementptr inbounds nuw i8, ptr %1, i64 8
  %80 = load ptr, ptr %79, align 8
  %81 = zext i32 %.244 to i64
  %82 = getelementptr inbounds nuw i32, ptr %80, i64 %81
  %83 = load i32, ptr %82, align 4
  %84 = add i32 %83, 1
  store i32 %84, ptr %82, align 4
  %85 = getelementptr inbounds nuw i8, ptr %1, i64 32
  %86 = load i32, ptr %85, align 8
  %87 = add i32 %86, -1
  store i32 %87, ptr %85, align 8
  %88 = icmp eq i32 %87, 0
  br i1 %88, label %89, label %90

89:                                               ; preds = %_ZN5o3dgc16Arithmetic_Codec19renorm_dec_intervalEv.exit
  tail call void @_ZN5o3dgc19Adaptive_Data_Model6updateEb(ptr noundef nonnull align 8 dereferenceable(52) %1, i1 noundef zeroext false)
  br label %90

90:                                               ; preds = %89, %_ZN5o3dgc16Arithmetic_Codec19renorm_dec_intervalEv.exit
  ret i32 %.244
}